target datalayout = "e-m:e-p270:32:32-p271:32:32-p272:64:64-i64:64-i128:128-f80:128-n8:16:32:64-S128"
target triple = "x86_64-pc-linux-gnu"

%class.QFlags = type { i32 }
%class.SaveMeshAttributesDialog = type { %class.QDialog, ptr, ptr, i32, i32, i32, i32, %class.RichParameterList, %"class.std::vector.19", ptr, ptr }
%class.QDialog = type { %class.QWidget }
%class.QWidget = type { %class.QObject, %class.QPaintDevice, ptr }
%class.QObject = type { ptr, %class.QScopedPointer }
%class.QScopedPointer = type { ptr }
%class.QPaintDevice = type { ptr, i16, ptr }
%class.RichParameterList = type { %"class.std::__cxx11::list" }
%"class.std::__cxx11::list" = type { %"class.std::__cxx11::_List_base" }
%"class.std::__cxx11::_List_base" = type { %"struct.std::__cxx11::_List_base<RichParameter *, std::allocator<RichParameter *>>::_List_impl" }
%"struct.std::__cxx11::_List_base<RichParameter *, std::allocator<RichParameter *>>::_List_impl" = type { %"struct.std::__detail::_List_node_header" }
%"struct.std::__detail::_List_node_header" = type { %"struct.std::__detail::_List_node_base", i64 }
%"struct.std::__detail::_List_node_base" = type { ptr, ptr }
%"class.std::vector.19" = type { %"struct.std::_Vector_base.20" }
%"struct.std::_Vector_base.20" = type { %"struct.std::_Vector_base<std::__cxx11::basic_string<char>, std::allocator<std::__cxx11::basic_string<char>>>::_Vector_impl" }
%"struct.std::_Vector_base<std::__cxx11::basic_string<char>, std::allocator<std::__cxx11::basic_string<char>>>::_Vector_impl" = type { %"struct.std::_Vector_base<std::__cxx11::basic_string<char>, std::allocator<std::__cxx11::basic_string<char>>>::_Vector_impl_data" }
%"struct.std::_Vector_base<std::__cxx11::basic_string<char>, std::allocator<std::__cxx11::basic_string<char>>>::_Vector_impl_data" = type { ptr, ptr, ptr }
%class.Ui_SaveMeshAttributesDialog = type { ptr, ptr, ptr, ptr, ptr, ptr, ptr, ptr, ptr, ptr, ptr, ptr, ptr, ptr, ptr, ptr, ptr, ptr, ptr, ptr, ptr, ptr, ptr, ptr, ptr, ptr, ptr, ptr, ptr, ptr, ptr, ptr, ptr, ptr, ptr, ptr, ptr, ptr, ptr, ptr, ptr, ptr, ptr, ptr, ptr, ptr, ptr }
%class.QRect = type { i32, i32, i32, i32 }
%class.QWidgetData = type { i64, i32, %class.QFlags, i32, %class.QRect, [4 x i8], %class.QPalette, %class.QFont, %class.QRect }
%class.QPalette = type <{ ptr, %union.anon.171, [4 x i8] }>
%union.anon.171 = type { %"struct.QPalette::Data" }
%"struct.QPalette::Data" = type { i32 }
%class.QFont = type <{ %class.QExplicitlySharedDataPointer, i32, [4 x i8] }>
%class.QExplicitlySharedDataPointer = type { ptr }

; Function Attrs: mustprogress uwtable
define linkonce_odr noundef zeroext i1 @_ZNK7QWidget13testAttributeEN2Qt15WidgetAttributeE(ptr noundef nonnull align 8 dereferenceable(48) %0, i32 noundef %1) #5 comdat align 2 {
  %3 = alloca i1, align 1
  %4 = alloca ptr, align 8
  %5 = alloca i32, align 4
  store ptr %0, ptr %4, align 8
  store i32 %1, ptr %5, align 4
  %6 = load ptr, ptr %4, align 8
  %7 = load i32, ptr %5, align 4
  %8 = icmp slt i32 %7, 32
  br i1 %8, label %9, label %18

9:                                                ; preds = %2
  %10 = getelementptr inbounds %class.QWidget, ptr %6, i32 0, i32 2
  %11 = load ptr, ptr %10, align 8
  %12 = getelementptr inbounds %class.QWidgetData, ptr %11, i32 0, i32 1
  %13 = load i32, ptr %12, align 8
  %14 = load i32, ptr %5, align 4
  %15 = shl i32 1, %14
  %16 = and i32 %13, %15
  %17 = icmp ne i32 %16, 0
  store i1 %17, ptr %3, align 1
  br label %21

18:                                               ; preds = %2
  %19 = load i32, ptr %5, align 4
  %20 = call noundef zeroext i1 @_ZNK7QWidget20testAttribute_helperEN2Qt15WidgetAttributeE(ptr noundef nonnull align 8 dereferenceable(48) %6, i32 noundef %19)
  store i1 %20, ptr %3, align 1
  br label %21

21:                                               ; preds = %18, %9
  %22 = load i1, ptr %3, align 1
  ret i1 %22
}

; Function Attrs: mustprogress uwtable
define linkonce_odr noundef zeroext i1 @_ZNK7QWidget9isEnabledEv(ptr noundef nonnull align 8 dereferenceable(48) %0) #5 comdat align 2 {
  %2 = alloca ptr, align 8
  store ptr %0, ptr %2, align 8
  %3 = load ptr, ptr %2, align 8
  %4 = call noundef zeroext i1 @_ZNK7QWidget13testAttributeEN2Qt15WidgetAttributeE(ptr noundef nonnull align 8 dereferenceable(48) %3, i32 noundef 0)
  %5 = xor i1 %4, true
  ret i1 %5
}

; Function Attrs: mustprogress uwtable
define void @_ZN24SaveMeshAttributesDialog20on_AllButton_clickedEv(ptr noundef nonnull align 8 dereferenceable(144) %0) #5 align 2 {
  %2 = alloca ptr, align 8
  store ptr %0, ptr %2, align 8
  %3 = load ptr, ptr %2, align 8
  %4 = getelementptr inbounds %class.SaveMeshAttributesDialog, ptr %3, i32 0, i32 1
  %5 = load ptr, ptr %4, align 8
  %6 = getelementptr inbounds %class.Ui_SaveMeshAttributesDialog, ptr %5, i32 0, i32 6
  %7 = load ptr, ptr %6, align 8
  %8 = getelementptr inbounds %class.SaveMeshAttributesDialog, ptr %3, i32 0, i32 1
  %9 = load ptr, ptr %8, align 8
  %10 = getelementptr inbounds %class.Ui_SaveMeshAttributesDialog, ptr %9, i32 0, i32 6
  %11 = load ptr, ptr %10, align 8
  %12 = call noundef zeroext i1 @_ZNK7QWidget9isEnabledEv(ptr noundef nonnull align 8 dereferenceable(48) %11)
  call void @_ZN15QAbstractButton10setCheckedEb(ptr noundef nonnull align 8 dereferenceable(48) %7, i1 noundef zeroext %12)
  %13 = getelementptr inbounds %class.SaveMeshAttributesDialog, ptr %3, i32 0, i32 1
  %14 = load ptr, ptr %13, align 8
  %15 = getelementptr inbounds %class.Ui_SaveMeshAttributesDialog, ptr %14, i32 0, i32 4
  %16 = load ptr, ptr %15, align 8
  %17 = getelementptr inbounds %class.SaveMeshAttributesDialog, ptr %3, i32 0, i32 1
  %18 = load ptr, ptr %17, align 8
  %19 = getelementptr inbounds %class.Ui_SaveMeshAttributesDialog, ptr %18, i32 0, i32 4
  %20 = load ptr, ptr %19, align 8
  %21 = call noundef zeroext i1 @_ZNK7QWidget9isEnabledEv(ptr noundef nonnull align 8 dereferenceable(48) %20)
  call void @_ZN15QAbstractButton10setCheckedEb(ptr noundef nonnull align 8 dereferenceable(48) %16, i1 noundef zeroext %21)
  %22 = getelementptr inbounds %class.SaveMeshAttributesDialog, ptr %3, i32 0, i32 1
  %23 = load ptr, ptr %22, align 8
  %24 = getelementptr inbounds %class.Ui_SaveMeshAttributesDialog, ptr %23, i32 0, i32 5
  %25 = load ptr, ptr %24, align 8
  %26 = getelementptr inbounds %class.SaveMeshAttributesDialog, ptr %3, i32 0, i32 1
  %27 = load ptr, ptr %26, align 8
  %28 = getelementptr inbounds %class.Ui_SaveMeshAttributesDialog, ptr %27, i32 0, i32 5
  %29 = load ptr, ptr %28, align 8
  %30 = call noundef zeroext i1 @_ZNK7QWidget9isEnabledEv(ptr noundef nonnull align 8 dereferenceable(48) %29)
  call void @_ZN15QAbstractButton10setCheckedEb(ptr noundef nonnull align 8 dereferenceable(48) %25, i1 noundef zeroext %30)
  %31 = getelementptr inbounds %class.SaveMeshAttributesDialog, ptr %3, i32 0, i32 1
  %32 = load ptr, ptr %31, align 8
  %33 = getelementptr inbounds %class.Ui_SaveMeshAttributesDialog, ptr %32, i32 0, i32 8
  %34 = load ptr, ptr %33, align 8
  %35 = getelementptr inbounds %class.SaveMeshAttributesDialog, ptr %3, i32 0, i32 1
  %36 = load ptr, ptr %35, align 8
  %37 = getelementptr inbounds %class.Ui_SaveMeshAttributesDialog, ptr %36, i32 0, i32 8
  %38 = load ptr, ptr %37, align 8
  %39 = call noundef zeroext i1 @_ZNK7QWidget9isEnabledEv(ptr noundef nonnull align 8 dereferenceable(48) %38)
  call void @_ZN15QAbstractButton10setCheckedEb(ptr noundef nonnull align 8 dereferenceable(48) %34, i1 noundef zeroext %39)
  %40 = getelementptr inbounds %class.SaveMeshAttributesDialog, ptr %3, i32 0, i32 1
  %41 = load ptr, ptr %40, align 8
  %42 = getelementptr inbounds %class.Ui_SaveMeshAttributesDialog, ptr %41, i32 0, i32 7
  %43 = load ptr, ptr %42, align 8
  %44 = getelementptr inbounds %class.SaveMeshAttributesDialog, ptr %3, i32 0, i32 1
  %45 = load ptr, ptr %44, align 8
  %46 = getelementptr inbounds %class.Ui_SaveMeshAttributesDialog, ptr %45, i32 0, i32 7
  %47 = load ptr, ptr %46, align 8
  %48 = call noundef zeroext i1 @_ZNK7QWidget9isEnabledEv(ptr noundef nonnull align 8 dereferenceable(48) %47)
  call void @_ZN15QAbstractButton10setCheckedEb(ptr noundef nonnull align 8 dereferenceable(48) %43, i1 noundef zeroext %48)
  %49 = getelementptr inbounds %class.SaveMeshAttributesDialog, ptr %3, i32 0, i32 1
  %50 = load ptr, ptr %49, align 8
  %51 = getelementptr inbounds %class.Ui_SaveMeshAttributesDialog, ptr %50, i32 0, i32 9
  %52 = load ptr, ptr %51, align 8
  %53 = getelementptr inbounds %class.SaveMeshAttributesDialog, ptr %3, i32 0, i32 1
  %54 = load ptr, ptr %53, align 8
  %55 = getelementptr inbounds %class.Ui_SaveMeshAttributesDialog, ptr %54, i32 0, i32 9
  %56 = load ptr, ptr %55, align 8
  %57 = call noundef zeroext i1 @_ZNK7QWidget9isEnabledEv(ptr noundef nonnull align 8 dereferenceable(48) %56)
  call void @_ZN15QAbstractButton10setCheckedEb(ptr noundef nonnull align 8 dereferenceable(48) %52, i1 noundef zeroext %57)
  %58 = getelementptr inbounds %class.SaveMeshAttributesDialog, ptr %3, i32 0, i32 1
  %59 = load ptr, ptr %58, align 8
  %60 = getelementptr inbounds %class.Ui_SaveMeshAttributesDialog, ptr %59, i32 0, i32 15
  %61 = load ptr, ptr %60, align 8
  %62 = getelementptr inbounds %class.SaveMeshAttributesDialog, ptr %3, i32 0, i32 1
  %63 = load ptr, ptr %62, align 8
  %64 = getelementptr inbounds %class.Ui_SaveMeshAttributesDialog, ptr %63, i32 0, i32 15
  %65 = load ptr, ptr %64, align 8
  %66 = call noundef zeroext i1 @_ZNK7QWidget9isEnabledEv(ptr noundef nonnull align 8 dereferenceable(48) %65)
  call void @_ZN15QAbstractButton10setCheckedEb(ptr noundef nonnull align 8 dereferenceable(48) %61, i1 noundef zeroext %66)
  %67 = getelementptr inbounds %class.SaveMeshAttributesDialog, ptr %3, i32 0, i32 1
  %68 = load ptr, ptr %67, align 8
  %69 = getelementptr inbounds %class.Ui_SaveMeshAttributesDialog, ptr %68, i32 0, i32 13
  %70 = load ptr, ptr %69, align 8
  %71 = getelementptr inbounds %class.SaveMeshAttributesDialog, ptr %3, i32 0, i32 1
  %72 = load ptr, ptr %71, align 8
  %73 = getelementptr inbounds %class.Ui_SaveMeshAttributesDialog, ptr %72, i32 0, i32 13
  %74 = load ptr, ptr %73, align 8
  %75 = call noundef zeroext i1 @_ZNK7QWidget9isEnabledEv(ptr noundef nonnull align 8 dereferenceable(48) %74)
  call void @_ZN15QAbstractButton10setCheckedEb(ptr noundef nonnull align 8 dereferenceable(48) %70, i1 noundef zeroext %75)
  %76 = getelementptr inbounds %class.SaveMeshAttributesDialog, ptr %3, i32 0, i32 1
  %77 = load ptr, ptr %76, align 8
  %78 = getelementptr inbounds %class.Ui_SaveMeshAttributesDialog, ptr %77, i32 0, i32 16
  %79 = load ptr, ptr %78, align 8
  %80 = getelementptr inbounds %class.SaveMeshAttributesDialog, ptr %3, i32 0, i32 1
  %81 = load ptr, ptr %80, align 8
  %82 = getelementptr inbounds %class.Ui_SaveMeshAttributesDialog, ptr %81, i32 0, i32 16
  %83 = load ptr, ptr %82, align 8
  %84 = call noundef zeroext i1 @_ZNK7QWidget9isEnabledEv(ptr noundef nonnull align 8 dereferenceable(48) %83)
  call void @_ZN15QAbstractButton10setCheckedEb(ptr noundef nonnull align 8 dereferenceable(48) %79, i1 noundef zeroext %84)
  %85 = getelementptr inbounds %class.SaveMeshAttributesDialog, ptr %3, i32 0, i32 1
  %86 = load ptr, ptr %85, align 8
  %87 = getelementptr inbounds %class.Ui_SaveMeshAttributesDialog, ptr %86, i32 0, i32 14
  %88 = load ptr, ptr %87, align 8
  %89 = getelementptr inbounds %class.SaveMeshAttributesDialog, ptr %3, i32 0, i32 1
  %90 = load ptr, ptr %89, align 8
  %91 = getelementptr inbounds %class.Ui_SaveMeshAttributesDialog, ptr %90, i32 0, i32 14
  %92 = load ptr, ptr %91, align 8
  %93 = call noundef zeroext i1 @_ZNK7QWidget9isEnabledEv(ptr noundef nonnull align 8 dereferenceable(48) %92)
  call void @_ZN15QAbstractButton10setCheckedEb(ptr noundef nonnull align 8 dereferenceable(48) %88, i1 noundef zeroext %93)
  %94 = getelementptr inbounds %class.SaveMeshAttributesDialog, ptr %3, i32 0, i32 1
  %95 = load ptr, ptr %94, align 8
  %96 = getelementptr inbounds %class.Ui_SaveMeshAttributesDialog, ptr %95, i32 0, i32 20
  %97 = load ptr, ptr %96, align 8
  %98 = getelementptr inbounds %class.SaveMeshAttributesDialog, ptr %3, i32 0, i32 1
  %99 = load ptr, ptr %98, align 8
  %100 = getelementptr inbounds %class.Ui_SaveMeshAttributesDialog, ptr %99, i32 0, i32 20
  %101 = load ptr, ptr %100, align 8
  %102 = call noundef zeroext i1 @_ZNK7QWidget9isEnabledEv(ptr noundef nonnull align 8 dereferenceable(48) %101)
  call void @_ZN15QAbstractButton10setCheckedEb(ptr noundef nonnull align 8 dereferenceable(48) %97, i1 noundef zeroext %102)
  %103 = getelementptr inbounds %class.SaveMeshAttributesDialog, ptr %3, i32 0, i32 1
  %104 = load ptr, ptr %103, align 8
  %105 = getelementptr inbounds %class.Ui_SaveMeshAttributesDialog, ptr %104, i32 0, i32 22
  %106 = load ptr, ptr %105, align 8
  %107 = getelementptr inbounds %class.SaveMeshAttributesDialog, ptr %3, i32 0, i32 1
  %108 = load ptr, ptr %107, align 8
  %109 = getelementptr inbounds %class.Ui_SaveMeshAttributesDialog, ptr %108, i32 0, i32 22
  %110 = load ptr, ptr %109, align 8
  %111 = call noundef zeroext i1 @_ZNK7QWidget9isEnabledEv(ptr noundef nonnull align 8 dereferenceable(48) %110)
  call void @_ZN15QAbstractButton10setCheckedEb(ptr noundef nonnull align 8 dereferenceable(48) %106, i1 noundef zeroext %111)
  %112 = getelementptr inbounds %class.SaveMeshAttributesDialog, ptr %3, i32 0, i32 1
  %113 = load ptr, ptr %112, align 8
  %114 = getelementptr inbounds %class.Ui_SaveMeshAttributesDialog, ptr %113, i32 0, i32 21
  %115 = load ptr, ptr %114, align 8
  %116 = getelementptr inbounds %class.SaveMeshAttributesDialog, ptr %3, i32 0, i32 1
  %117 = load ptr, ptr %116, align 8
  %118 = getelementptr inbounds %class.Ui_SaveMeshAttributesDialog, ptr %117, i32 0, i32 21
  %119 = load ptr, ptr %118, align 8
  %120 = call noundef zeroext i1 @_ZNK7QWidget9isEnabledEv(ptr noundef nonnull align 8 dereferenceable(48) %119)
  call void @_ZN15QAbstractButton10setCheckedEb(ptr noundef nonnull align 8 dereferenceable(48) %115, i1 noundef zeroext %120)
  %121 = getelementptr inbounds %class.SaveMeshAttributesDialog, ptr %3, i32 0, i32 1
  %122 = load ptr, ptr %121, align 8
  %123 = getelementptr inbounds %class.Ui_SaveMeshAttributesDialog, ptr %122, i32 0, i32 41
  %124 = load ptr, ptr %123, align 8
  %125 = getelementptr inbounds %class.SaveMeshAttributesDialog, ptr %3, i32 0, i32 1
  %126 = load ptr, ptr %125, align 8
  %127 = getelementptr inbounds %class.Ui_SaveMeshAttributesDialog, ptr %126, i32 0, i32 41
  %128 = load ptr, ptr %127, align 8
  %129 = call noundef zeroext i1 @_ZNK7QWidget9isEnabledEv(ptr noundef nonnull align 8 dereferenceable(48) %128)
  call void @_ZN15QAbstractButton10setCheckedEb(ptr noundef nonnull align 8 dereferenceable(48) %124, i1 noundef zeroext %129)
  ret void
}