; Function Attrs: mustprogress uwtable
define void @_ZN24SaveMeshAttributesDialog20on_AllButton_clickedEv(ptr nocapture noundef nonnull readonly align 8 dereferenceable(144) %0) local_unnamed_addr #9 align 2 {
  %2 = getelementptr inbounds i8, ptr %0, i64 48
  %3 = load ptr, ptr %2, align 8
  %4 = getelementptr inbounds i8, ptr %3, i64 48
  %5 = load ptr, ptr %4, align 8
  %6 = getelementptr inbounds i8, ptr %5, i64 40
  %7 = load ptr, ptr %6, align 8
  %8 = getelementptr inbounds i8, ptr %7, i64 8
  %9 = load i32, ptr %8, align 8
  %10 = and i32 %9, 1
  %.not.i = icmp eq i32 %10, 0
  tail call void @_ZN15QAbstractButton10setCheckedEb(ptr noundef nonnull align 8 dereferenceable(48) %5, i1 noundef zeroext %.not.i)
  %11 = load ptr, ptr %2, align 8
  %12 = getelementptr inbounds i8, ptr %11, i64 32
  %13 = load ptr, ptr %12, align 8
  %14 = getelementptr inbounds i8, ptr %13, i64 40
  %15 = load ptr, ptr %14, align 8
  %16 = getelementptr inbounds i8, ptr %15, i64 8
  %17 = load i32, ptr %16, align 8
  %18 = and i32 %17, 1
  %.not.i1 = icmp eq i32 %18, 0
  tail call void @_ZN15QAbstractButton10setCheckedEb(ptr noundef nonnull align 8 dereferenceable(48) %13, i1 noundef zeroext %.not.i1)
  %19 = load ptr, ptr %2, align 8
  %20 = getelementptr inbounds i8, ptr %19, i64 40
  %21 = load ptr, ptr %20, align 8
  %22 = getelementptr inbounds i8, ptr %21, i64 40
  %23 = load ptr, ptr %22, align 8
  %24 = getelementptr inbounds i8, ptr %23, i64 8
  %25 = load i32, ptr %24, align 8
  %26 = and i32 %25, 1
  %.not.i2 = icmp eq i32 %26, 0
  tail call void @_ZN15QAbstractButton10setCheckedEb(ptr noundef nonnull align 8 dereferenceable(48) %21, i1 noundef zeroext %.not.i2)
  %27 = load ptr, ptr %2, align 8
  %28 = getelementptr inbounds i8, ptr %27, i64 64
  %29 = load ptr, ptr %28, align 8
  %30 = getelementptr inbounds i8, ptr %29, i64 40
  %31 = load ptr, ptr %30, align 8
  %32 = getelementptr inbounds i8, ptr %31, i64 8
  %33 = load i32, ptr %32, align 8
  %34 = and i32 %33, 1
  %.not.i3 = icmp eq i32 %34, 0
  tail call void @_ZN15QAbstractButton10setCheckedEb(ptr noundef nonnull align 8 dereferenceable(48) %29, i1 noundef zeroext %.not.i3)
  %35 = load ptr, ptr %2, align 8
  %36 = getelementptr inbounds i8, ptr %35, i64 56
  %37 = load ptr, ptr %36, align 8
  %38 = getelementptr inbounds i8, ptr %37, i64 40
  %39 = load ptr, ptr %38, align 8
  %40 = getelementptr inbounds i8, ptr %39, i64 8
  %41 = load i32, ptr %40, align 8
  %42 = and i32 %41, 1
  %.not.i4 = icmp eq i32 %42, 0
  tail call void @_ZN15QAbstractButton10setCheckedEb(ptr noundef nonnull align 8 dereferenceable(48) %37, i1 noundef zeroext %.not.i4)
  %43 = load ptr, ptr %2, align 8
  %44 = getelementptr inbounds i8, ptr %43, i64 72
  %45 = load ptr, ptr %44, align 8
  %46 = getelementptr inbounds i8, ptr %45, i64 40
  %47 = load ptr, ptr %46, align 8
  %48 = getelementptr inbounds i8, ptr %47, i64 8
  %49 = load i32, ptr %48, align 8
  %50 = and i32 %49, 1
  %.not.i5 = icmp eq i32 %50, 0
  tail call void @_ZN15QAbstractButton10setCheckedEb(ptr noundef nonnull align 8 dereferenceable(48) %45, i1 noundef zeroext %.not.i5)
  %51 = load ptr, ptr %2, align 8
  %52 = getelementptr inbounds i8, ptr %51, i64 120
  %53 = load ptr, ptr %52, align 8
  %54 = getelementptr inbounds i8, ptr %53, i64 40
  %55 = load ptr, ptr %54, align 8
  %56 = getelementptr inbounds i8, ptr %55, i64 8
  %57 = load i32, ptr %56, align 8
  %58 = and i32 %57, 1
  %.not.i6 = icmp eq i32 %58, 0
  tail call void @_ZN15QAbstractButton10setCheckedEb(ptr noundef nonnull align 8 dereferenceable(48) %53, i1 noundef zeroext %.not.i6)
  %59 = load ptr, ptr %2, align 8
  %60 = getelementptr inbounds i8, ptr %59, i64 104
  %61 = load ptr, ptr %60, align 8
  %62 = getelementptr inbounds i8, ptr %61, i64 40
  %63 = load ptr, ptr %62, align 8
  %64 = getelementptr inbounds i8, ptr %63, i64 8
  %65 = load i32, ptr %64, align 8
  %66 = and i32 %65, 1
  %.not.i7 = icmp eq i32 %66, 0
  tail call void @_ZN15QAbstractButton10setCheckedEb(ptr noundef nonnull align 8 dereferenceable(48) %61, i1 noundef zeroext %.not.i7)
  %67 = load ptr, ptr %2, align 8
  %68 = getelementptr inbounds i8, ptr %67, i64 128
  %69 = load ptr, ptr %68, align 8
  %70 = getelementptr inbounds i8, ptr %69, i64 40
  %71 = load ptr, ptr %70, align 8
  %72 = getelementptr inbounds i8, ptr %71, i64 8
  %73 = load i32, ptr %72, align 8
  %74 = and i32 %73, 1
  %.not.i8 = icmp eq i32 %74, 0
  tail call void @_ZN15QAbstractButton10setCheckedEb(ptr noundef nonnull align 8 dereferenceable(48) %69, i1 noundef zeroext %.not.i8)
  %75 = load ptr, ptr %2, align 8
  %76 = getelementptr inbounds i8, ptr %75, i64 112
  %77 = load ptr, ptr %76, align 8
  %78 = getelementptr inbounds i8, ptr %77, i64 40
  %79 = load ptr, ptr %78, align 8
  %80 = getelementptr inbounds i8, ptr %79, i64 8
  %81 = load i32, ptr %80, align 8
  %82 = and i32 %81, 1
  %.not.i9 = icmp eq i32 %82, 0
  tail call void @_ZN15QAbstractButton10setCheckedEb(ptr noundef nonnull align 8 dereferenceable(48) %77, i1 noundef zeroext %.not.i9)
  %83 = load ptr, ptr %2, align 8
  %84 = getelementptr inbounds i8, ptr %83, i64 160
  %85 = load ptr, ptr %84, align 8
  %86 = getelementptr inbounds i8, ptr %85, i64 40
  %87 = load ptr, ptr %86, align 8
  %88 = getelementptr inbounds i8, ptr %87, i64 8
  %89 = load i32, ptr %88, align 8
  %90 = and i32 %89, 1
  %.not.i10 = icmp eq i32 %90, 0
  tail call void @_ZN15QAbstractButton10setCheckedEb(ptr noundef nonnull align 8 dereferenceable(48) %85, i1 noundef zeroext %.not.i10)
  %91 = load ptr, ptr %2, align 8
  %92 = getelementptr inbounds i8, ptr %91, i64 176
  %93 = load ptr, ptr %92, align 8
  %94 = getelementptr inbounds i8, ptr %93, i64 40
  %95 = load ptr, ptr %94, align 8
  %96 = getelementptr inbounds i8, ptr %95, i64 8
  %97 = load i32, ptr %96, align 8
  %98 = and i32 %97, 1
  %.not.i11 = icmp eq i32 %98, 0
  tail call void @_ZN15QAbstractButton10setCheckedEb(ptr noundef nonnull align 8 dereferenceable(48) %93, i1 noundef zeroext %.not.i11)
  %99 = load ptr, ptr %2, align 8
  %100 = getelementptr inbounds i8, ptr %99, i64 168
  %101 = load ptr, ptr %100, align 8
  %102 = getelementptr inbounds i8, ptr %101, i64 40
  %103 = load ptr, ptr %102, align 8
  %104 = getelementptr inbounds i8, ptr %103, i64 8
  %105 = load i32, ptr %104, align 8
  %106 = and i32 %105, 1
  %.not.i12 = icmp eq i32 %106, 0
  tail call void @_ZN15QAbstractButton10setCheckedEb(ptr noundef nonnull align 8 dereferenceable(48) %101, i1 noundef zeroext %.not.i12)
  %107 = load ptr, ptr %2, align 8
  %108 = getelementptr inbounds i8, ptr %107, i64 328
  %109 = load ptr, ptr %108, align 8
  %110 = getelementptr inbounds i8, ptr %109, i64 40
  %111 = load ptr, ptr %110, align 8
  %112 = getelementptr inbounds i8, ptr %111, i64 8
  %113 = load i32, ptr %112, align 8
  %114 = and i32 %113, 1
  %.not.i13 = icmp eq i32 %114, 0
  tail call void @_ZN15QAbstractButton10setCheckedEb(ptr noundef nonnull align 8 dereferenceable(48) %109, i1 noundef zeroext %.not.i13)
  ret void
}